; Function Attrs: nounwind uwtable
define i32 @EVP_CIPHER_CTX_get_params(ptr noundef readonly captures(none) %0, ptr noundef %1) local_unnamed_addr #0 {
  %3 = load ptr, ptr %0, align 8, !tbaa !3
  %.not = icmp eq ptr %3, null
  br i1 %.not, label %11, label %4

4:                                                ; preds = %2
  %5 = getelementptr inbounds nuw i8, ptr %3, i64 240
  %6 = load ptr, ptr %5, align 8, !tbaa !81
  %.not7 = icmp eq ptr %6, null
  br i1 %.not7, label %11, label %7

7:                                                ; preds = %4
  %8 = getelementptr inbounds nuw i8, ptr %0, i64 176
  %9 = load ptr, ptr %8, align 8, !tbaa !17
  %10 = tail call i32 %6(ptr noundef %9, ptr noundef %1) #10
  br label %11

11:                                               ; preds = %2, %4, %7
  %.0 = phi i32 [ %10, %7 ], [ 0, %4 ], [ 0, %2 ]
  ret i32 %.0
}